#include <math.h>
#include <stdio.h>
#include <stdlib.h>
#include <string.h>

int main()
{
    int i,k,row,col,ROW,sz[100][100],COL,sum[100];
    scanf("%d", &k);
    for(i=0;i<k;i++)
    {
                    sum[i]=0;
                    }
    for(i=0;i<k;i++)
    {
                     scanf("%d %d", &ROW, &COL);  
                     for(row=0;row<ROW;row++)
                     {
                                              for(col=0;col<COL;col++)
                                              {
                                                                      scanf("%d", &sz[row][col]);
                                              }
                                              }
                    if(ROW==1&&COL==1)
                    {
                                      sum[i]=sum[i]+sz[0][0];
                                      }
                     else   
                     {                       
                     for(col=0;col<COL;col++)
                     {
                                             sum[i]=sum[i]+sz[0][col]+sz[ROW-1][col]; 
                     }
                     for(row=1;row<(ROW-1);row++)
                     {
                                                 sum[i]=sum[i]+sz[row][0]+sz[row][COL-1];                         
                     }
                     }
    
    }
    for(i=0;i<k;i++)
    {
    printf("%d\n", sum[i]);
    }
scanf("%d", &k);
return 0;
}