; ModuleID = '6/1001.c'
source_filename = "6/1001.c"
target datalayout = "e-m:e-p270:32:32-p271:32:32-p272:64:64-i64:64-f80:128-n8:16:32:64-S128"
target triple = "x86_64-pc-linux-gnu"

@.str = private unnamed_addr constant [3 x i8] c"%d\00", align 1
@.str.1 = private unnamed_addr constant [6 x i8] c"%d %d\00", align 1
@.str.2 = private unnamed_addr constant [4 x i8] c"%d\0A\00", align 1

; Function Attrs: noinline nounwind uwtable
define dso_local i32 @main() #0 {
  %1 = alloca i32, align 4
  %2 = alloca i32, align 4
  %3 = alloca i32, align 4
  %4 = alloca i32, align 4
  %5 = alloca i32, align 4
  %6 = alloca i32, align 4
  %7 = alloca [100 x [100 x i32]], align 16
  %8 = alloca i32, align 4
  %9 = alloca [100 x i32], align 16
  store i32 0, i32* %1, align 4
  %10 = call i32 (i8*, ...) @__isoc99_scanf(i8* getelementptr inbounds ([3 x i8], [3 x i8]* @.str, i64 0, i64 0), i32* %3)
  store i32 0, i32* %2, align 4
  br label %11

11:                                               ; preds = %19, %0
  %12 = load i32, i32* %2, align 4
  %13 = load i32, i32* %3, align 4
  %14 = icmp slt i32 %12, %13
  br i1 %14, label %15, label %22

15:                                               ; preds = %11
  %16 = load i32, i32* %2, align 4
  %17 = sext i32 %16 to i64
  %18 = getelementptr inbounds [100 x i32], [100 x i32]* %9, i64 0, i64 %17
  store i32 0, i32* %18, align 4
  br label %19

19:                                               ; preds = %15
  %20 = load i32, i32* %2, align 4
  %21 = add nsw i32 %20, 1
  store i32 %21, i32* %2, align 4
  br label %11

22:                                               ; preds = %11
  store i32 0, i32* %2, align 4
  br label %23

23:                                               ; preds = %136, %22
  %24 = load i32, i32* %2, align 4
  %25 = load i32, i32* %3, align 4
  %26 = icmp slt i32 %24, %25
  br i1 %26, label %27, label %139

27:                                               ; preds = %23
  %28 = call i32 (i8*, ...) @__isoc99_scanf(i8* getelementptr inbounds ([6 x i8], [6 x i8]* @.str.1, i64 0, i64 0), i32* %6, i32* %8)
  store i32 0, i32* %4, align 4
  br label %29

29:                                               ; preds = %50, %27
  %30 = load i32, i32* %4, align 4
  %31 = load i32, i32* %6, align 4
  %32 = icmp slt i32 %30, %31
  br i1 %32, label %33, label %53

33:                                               ; preds = %29
  store i32 0, i32* %5, align 4
  br label %34

34:                                               ; preds = %46, %33
  %35 = load i32, i32* %5, align 4
  %36 = load i32, i32* %8, align 4
  %37 = icmp slt i32 %35, %36
  br i1 %37, label %38, label %49

38:                                               ; preds = %34
  %39 = load i32, i32* %4, align 4
  %40 = sext i32 %39 to i64
  %41 = getelementptr inbounds [100 x [100 x i32]], [100 x [100 x i32]]* %7, i64 0, i64 %40
  %42 = load i32, i32* %5, align 4
  %43 = sext i32 %42 to i64
  %44 = getelementptr inbounds [100 x i32], [100 x i32]* %41, i64 0, i64 %43
  %45 = call i32 (i8*, ...) @__isoc99_scanf(i8* getelementptr inbounds ([3 x i8], [3 x i8]* @.str, i64 0, i64 0), i32* %44)
  br label %46

46:                                               ; preds = %38
  %47 = load i32, i32* %5, align 4
  %48 = add nsw i32 %47, 1
  store i32 %48, i32* %5, align 4
  br label %34

49:                                               ; preds = %34
  br label %50

50:                                               ; preds = %49
  %51 = load i32, i32* %4, align 4
  %52 = add nsw i32 %51, 1
  store i32 %52, i32* %4, align 4
  br label %29

53:                                               ; preds = %29
  %54 = load i32, i32* %6, align 4
  %55 = icmp eq i32 %54, 1
  br i1 %55, label %56, label %71

56:                                               ; preds = %53
  %57 = load i32, i32* %8, align 4
  %58 = icmp eq i32 %57, 1
  br i1 %58, label %59, label %71

59:                                               ; preds = %56
  %60 = load i32, i32* %2, align 4
  %61 = sext i32 %60 to i64
  %62 = getelementptr inbounds [100 x i32], [100 x i32]* %9, i64 0, i64 %61
  %63 = load i32, i32* %62, align 4
  %64 = getelementptr inbounds [100 x [100 x i32]], [100 x [100 x i32]]* %7, i64 0, i64 0
  %65 = getelementptr inbounds [100 x i32], [100 x i32]* %64, i64 0, i64 0
  %66 = load i32, i32* %65, align 16
  %67 = add nsw i32 %63, %66
  %68 = load i32, i32* %2, align 4
  %69 = sext i32 %68 to i64
  %70 = getelementptr inbounds [100 x i32], [100 x i32]* %9, i64 0, i64 %69
  store i32 %67, i32* %70, align 4
  br label %135

71:                                               ; preds = %56, %53
  store i32 0, i32* %5, align 4
  br label %72

72:                                               ; preds = %99, %71
  %73 = load i32, i32* %5, align 4
  %74 = load i32, i32* %8, align 4
  %75 = icmp slt i32 %73, %74
  br i1 %75, label %76, label %102

76:                                               ; preds = %72
  %77 = load i32, i32* %2, align 4
  %78 = sext i32 %77 to i64
  %79 = getelementptr inbounds [100 x i32], [100 x i32]* %9, i64 0, i64 %78
  %80 = load i32, i32* %79, align 4
  %81 = getelementptr inbounds [100 x [100 x i32]], [100 x [100 x i32]]* %7, i64 0, i64 0
  %82 = load i32, i32* %5, align 4
  %83 = sext i32 %82 to i64
  %84 = getelementptr inbounds [100 x i32], [100 x i32]* %81, i64 0, i64 %83
  %85 = load i32, i32* %84, align 4
  %86 = add nsw i32 %80, %85
  %87 = load i32, i32* %6, align 4
  %88 = sub nsw i32 %87, 1
  %89 = sext i32 %88 to i64
  %90 = getelementptr inbounds [100 x [100 x i32]], [100 x [100 x i32]]* %7, i64 0, i64 %89
  %91 = load i32, i32* %5, align 4
  %92 = sext i32 %91 to i64
  %93 = getelementptr inbounds [100 x i32], [100 x i32]* %90, i64 0, i64 %92
  %94 = load i32, i32* %93, align 4
  %95 = add nsw i32 %86, %94
  %96 = load i32, i32* %2, align 4
  %97 = sext i32 %96 to i64
  %98 = getelementptr inbounds [100 x i32], [100 x i32]* %9, i64 0, i64 %97
  store i32 %95, i32* %98, align 4
  br label %99

99:                                               ; preds = %76
  %100 = load i32, i32* %5, align 4
  %101 = add nsw i32 %100, 1
  store i32 %101, i32* %5, align 4
  br label %72

102:                                              ; preds = %72
  store i32 1, i32* %4, align 4
  br label %103

103:                                              ; preds = %131, %102
  %104 = load i32, i32* %4, align 4
  %105 = load i32, i32* %6, align 4
  %106 = sub nsw i32 %105, 1
  %107 = icmp slt i32 %104, %106
  br i1 %107, label %108, label %134

108:                                              ; preds = %103
  %109 = load i32, i32* %2, align 4
  %110 = sext i32 %109 to i64
  %111 = getelementptr inbounds [100 x i32], [100 x i32]* %9, i64 0, i64 %110
  %112 = load i32, i32* %111, align 4
  %113 = load i32, i32* %4, align 4
  %114 = sext i32 %113 to i64
  %115 = getelementptr inbounds [100 x [100 x i32]], [100 x [100 x i32]]* %7, i64 0, i64 %114
  %116 = getelementptr inbounds [100 x i32], [100 x i32]* %115, i64 0, i64 0
  %117 = load i32, i32* %116, align 16
  %118 = add nsw i32 %112, %117
  %119 = load i32, i32* %4, align 4
  %120 = sext i32 %119 to i64
  %121 = getelementptr inbounds [100 x [100 x i32]], [100 x [100 x i32]]* %7, i64 0, i64 %120
  %122 = load i32, i32* %8, align 4
  %123 = sub nsw i32 %122, 1
  %124 = sext i32 %123 to i64
  %125 = getelementptr inbounds [100 x i32], [100 x i32]* %121, i64 0, i64 %124
  %126 = load i32, i32* %125, align 4
  %127 = add nsw i32 %118, %126
  %128 = load i32, i32* %2, align 4
  %129 = sext i32 %128 to i64
  %130 = getelementptr inbounds [100 x i32], [100 x i32]* %9, i64 0, i64 %129
  store i32 %127, i32* %130, align 4
  br label %131

131:                                              ; preds = %108
  %132 = load i32, i32* %4, align 4
  %133 = add nsw i32 %132, 1
  store i32 %133, i32* %4, align 4
  br label %103

134:                                              ; preds = %103
  br label %135

135:                                              ; preds = %134, %59
  br label %136

136:                                              ; preds = %135
  %137 = load i32, i32* %2, align 4
  %138 = add nsw i32 %137, 1
  store i32 %138, i32* %2, align 4
  br label %23

139:                                              ; preds = %23
  store i32 0, i32* %2, align 4
  br label %140

140:                                              ; preds = %150, %139
  %141 = load i32, i32* %2, align 4
  %142 = load i32, i32* %3, align 4
  %143 = icmp slt i32 %141, %142
  br i1 %143, label %144, label %153

144:                                              ; preds = %140
  %145 = load i32, i32* %2, align 4
  %146 = sext i32 %145 to i64
  %147 = getelementptr inbounds [100 x i32], [100 x i32]* %9, i64 0, i64 %146
  %148 = load i32, i32* %147, align 4
  %149 = call i32 (i8*, ...) @printf(i8* getelementptr inbounds ([4 x i8], [4 x i8]* @.str.2, i64 0, i64 0), i32 %148)
  br label %150

150:                                              ; preds = %144
  %151 = load i32, i32* %2, align 4
  %152 = add nsw i32 %151, 1
  store i32 %152, i32* %2, align 4
  br label %140

153:                                              ; preds = %140
  %154 = call i32 (i8*, ...) @__isoc99_scanf(i8* getelementptr inbounds ([3 x i8], [3 x i8]* @.str, i64 0, i64 0), i32* %3)
  ret i32 0
}

declare dso_local i32 @__isoc99_scanf(i8*, ...) #1

declare dso_local i32 @printf(i8*, ...) #1


!llvm.module.flags = !{!0}
!llvm.ident = !{!1}

!0 = !{i32 1, !"wchar_size", i32 4}
!1 = !{!"clang version 10.0.0-4ubuntu1 "}
